; Function Attrs: mustprogress uwtable
define internal noundef i32 @_ZNK12_GLOBAL__N_124EnvironmentMacroExpanderclERKNSt7__cxx1112basic_stringIcSt11char_traitsIcESaIcEEES8_RS6_i(ptr nocapture nonnull readnone align 8 %0, ptr noundef nonnull align 8 dereferenceable(32) %1, ptr noundef nonnull align 8 dereferenceable(32) %2, ptr noundef nonnull align 8 dereferenceable(32) %3, i32 %4) unnamed_addr #3 align 2 personality ptr @__gxx_personality_v0 {
  %6 = alloca %"class.std::optional.575", align 8
  %7 = tail call noundef i32 @_ZNKSt7__cxx1112basic_stringIcSt11char_traitsIcESaIcEE7compareEPKc(ptr noundef nonnull align 8 dereferenceable(32) %1, ptr noundef nonnull @.str.56) #23
  %8 = icmp eq i32 %7, 0
  br i1 %8, label %9, label %_ZNSt8optionalINSt7__cxx1112basic_stringIcSt11char_traitsIcESaIcEEEED2Ev.exit7

9:                                                ; preds = %5
  %10 = tail call noundef zeroext i1 @_ZNKSt7__cxx1112basic_stringIcSt11char_traitsIcESaIcEE5emptyEv(ptr noundef nonnull align 8 dereferenceable(32) %2) #23
  br i1 %10, label %_ZNSt8optionalINSt7__cxx1112basic_stringIcSt11char_traitsIcESaIcEEEED2Ev.exit7, label %11

11:                                               ; preds = %9
  call void @_ZN13cmSystemTools9GetEnvVarERKNSt7__cxx1112basic_stringIcSt11char_traitsIcESaIcEEE(ptr dead_on_unwind nonnull writable sret(%"class.std::optional.575") align 8 %6, ptr noundef nonnull align 8 dereferenceable(32) %2)
  %12 = getelementptr inbounds i8, ptr %6, i64 32
  %13 = load i8, ptr %12, align 8
  %14 = and i8 %13, 1
  %.not = icmp eq i8 %14, 0
  br i1 %.not, label %_ZNSt8optionalINSt7__cxx1112basic_stringIcSt11char_traitsIcESaIcEEEED2Ev.exit7, label %15

15:                                               ; preds = %11
  %16 = invoke noundef nonnull align 8 dereferenceable(32) ptr @_ZNSt7__cxx1112basic_stringIcSt11char_traitsIcESaIcEEpLERKS4_(ptr noundef nonnull align 8 dereferenceable(32) %3, ptr noundef nonnull align 8 dereferenceable(32) %6)
          to label %22 unwind label %17

17:                                               ; preds = %15
  %18 = landingpad { ptr, i32 }
          cleanup
  %19 = load i8, ptr %12, align 8
  %20 = and i8 %19, 1
  %.not.i.i.i.i = icmp eq i8 %20, 0
  br i1 %.not.i.i.i.i, label %_ZNSt8optionalINSt7__cxx1112basic_stringIcSt11char_traitsIcESaIcEEEED2Ev.exit, label %21

21:                                               ; preds = %17
  store i8 0, ptr %12, align 8
  call void @_ZNSt7__cxx1112basic_stringIcSt11char_traitsIcESaIcEED1Ev(ptr noundef nonnull align 8 dereferenceable(32) %6) #23
  br label %_ZNSt8optionalINSt7__cxx1112basic_stringIcSt11char_traitsIcESaIcEEEED2Ev.exit

_ZNSt8optionalINSt7__cxx1112basic_stringIcSt11char_traitsIcESaIcEEEED2Ev.exit: ; preds = %17, %21
  resume { ptr, i32 } %18

22:                                               ; preds = %15
  %.pre = load i8, ptr %12, align 8
  %.pre8 = and i8 %.pre, 1
  %23 = icmp eq i8 %.pre8, 0
  br i1 %23, label %_ZNSt8optionalINSt7__cxx1112basic_stringIcSt11char_traitsIcESaIcEEEED2Ev.exit7, label %24

24:                                               ; preds = %22
  store i8 0, ptr %12, align 8
  call void @_ZNSt7__cxx1112basic_stringIcSt11char_traitsIcESaIcEED1Ev(ptr noundef nonnull align 8 dereferenceable(32) %6) #23
  br label %_ZNSt8optionalINSt7__cxx1112basic_stringIcSt11char_traitsIcESaIcEEEED2Ev.exit7

_ZNSt8optionalINSt7__cxx1112basic_stringIcSt11char_traitsIcESaIcEEEED2Ev.exit7: ; preds = %11, %24, %22, %5, %9
  %.0 = phi i32 [ 2, %9 ], [ 1, %5 ], [ 0, %22 ], [ 0, %24 ], [ 0, %11 ]
  ret i32 %.0
}